target datalayout = "e-m:e-p270:32:32-p271:32:32-p272:64:64-i64:64-i128:128-f80:128-n8:16:32:64-S128"
target triple = "x86_64-pc-linux-gnu"

%struct.Curl_cfilter = type { ptr, ptr, ptr, ptr, i32, i8 }
%struct.Curl_cftype = type { ptr, i32, i32, ptr, ptr, ptr, ptr, ptr, ptr, ptr, ptr, ptr, ptr, ptr, ptr, ptr }

; Function Attrs: nounwind uwtable
define dso_local i32 @Curl_conn_cf_connect(ptr noundef %0, ptr noundef %1, i1 noundef zeroext %2, ptr noundef %3) #0 {
  %5 = alloca i32, align 4
  %6 = alloca ptr, align 8
  %7 = alloca ptr, align 8
  %8 = alloca i8, align 1
  %9 = alloca ptr, align 8
  store ptr %0, ptr %6, align 8, !tbaa !4
  store ptr %1, ptr %7, align 8, !tbaa !9
  %10 = zext i1 %2 to i8
  store i8 %10, ptr %8, align 1, !tbaa !13
  store ptr %3, ptr %9, align 8, !tbaa !11
  %11 = load ptr, ptr %6, align 8, !tbaa !4
  %12 = icmp ne ptr %11, null
  br i1 %12, label %13, label %25

13:                                               ; preds = %4
  %14 = load ptr, ptr %6, align 8, !tbaa !4
  %15 = getelementptr inbounds nuw %struct.Curl_cfilter, ptr %14, i32 0, i32 0
  %16 = load ptr, ptr %15, align 8, !tbaa !24
  %17 = getelementptr inbounds nuw %struct.Curl_cftype, ptr %16, i32 0, i32 4
  %18 = load ptr, ptr %17, align 8, !tbaa !142
  %19 = load ptr, ptr %6, align 8, !tbaa !4
  %20 = load ptr, ptr %7, align 8, !tbaa !9
  %21 = load i8, ptr %8, align 1, !tbaa !13, !range !60, !noundef !61
  %22 = trunc i8 %21 to i1
  %23 = load ptr, ptr %9, align 8, !tbaa !11
  %24 = call i32 %18(ptr noundef %19, ptr noundef %20, i1 noundef zeroext %22, ptr noundef %23)
  store i32 %24, ptr %5, align 4
  br label %26

25:                                               ; preds = %4
  store i32 2, ptr %5, align 4
  br label %26

26:                                               ; preds = %25, %13
  %27 = load i32, ptr %5, align 4
  ret i32 %27
}