; Function Attrs: nounwind uwtable
define dso_local i32 @Curl_conn_cf_connect(ptr noundef %0, ptr noundef %1, i1 noundef zeroext %2, ptr noundef %3) local_unnamed_addr #1 {
  %.not = icmp eq ptr %0, null
  br i1 %.not, label %10, label %5

5:                                                ; preds = %4
  %6 = load ptr, ptr %0, align 8, !tbaa !15
  %7 = getelementptr inbounds nuw i8, ptr %6, i64 24
  %8 = load ptr, ptr %7, align 8, !tbaa !128
  %9 = tail call i32 %8(ptr noundef nonnull %0, ptr noundef %1, i1 noundef zeroext %2, ptr noundef %3) #12
  br label %10

10:                                               ; preds = %4, %5
  %.0 = phi i32 [ %9, %5 ], [ 2, %4 ]
  ret i32 %.0
}